(i__main__
HMM
p0
(dp1
S'isTrained'
p2
I01
sS'featureNames'
p3
(lp4
S'length'
p5
asS'priors'
p6
(dp7
S'text'
p8
F0.5272727272727272
sS'drawing'
p9
F0.4727272727272727
ssS'numVals'
p10
(dp11
g5
I2
ssS'states'
p12
(lp13
g9
ag8
asS'emissions'
p14
(dp15
g8
(dp16
g5
(lp17
F0.6366083445491252
aF0.3633916554508748
assg9
(dp18
g5
(lp19
F0.3166144200626959
aF0.6833855799373041
asssS'featuresCorD'
p20
(dp21
g5
I1
ssS'transitions'
p22
(dp23
g8
(dp24
g8
F0.8217821782178217
sg9
F0.1782178217821782
ssg9
(dp25
g8
F0.10454908220271349
sg9
F0.8954509177972865
sssb.