(i__main__
HMM
p0
(dp1
S'isTrained'
p2
I01
sS'featureNames'
p3
(lp4
S'length'
p5
aS'curvature'
p6
asS'priors'
p7
(dp8
S'text'
p9
F0.5272727272727272
sS'drawing'
p10
F0.4727272727272727
ssS'numVals'
p11
(dp12
g5
I2
sg6
I2
ssS'states'
p13
(lp14
g10
ag9
asS'emissions'
p15
(dp16
g9
(dp17
g5
(lp18
F0.7456258411843876
aF0.2543741588156124
asg6
(lp19
F0.5450874831763123
aF0.4549125168236878
assg10
(dp20
g5
(lp21
F0.40203761755485895
aF0.5979623824451411
asg6
(lp22
F0.5031347962382445
aF0.49686520376175547
asssS'featuresCorD'
p23
(dp24
g5
I1
sg6
I1
ssS'transitions'
p25
(dp26
g9
(dp27
g9
F0.8217821782178217
sg10
F0.1782178217821782
ssg10
(dp28
g9
F0.10454908220271349
sg10
F0.8954509177972865
sssb.